target datalayout = "e-m:e-p270:32:32-p271:32:32-p272:64:64-i64:64-i128:128-f80:128-n8:16:32:64-S128"
target triple = "x86_64-pc-linux-gnu"

%struct._zend_executor_globals = type { %struct._zval_struct, %struct._zval_struct, [32 x ptr], ptr, ptr, %struct._zend_array, %struct._zend_array, ptr, i32, i32, ptr, ptr, ptr, ptr, ptr, ptr, i64, ptr, ptr, i32, i32, i64, i32, i32, i32, i8, i8, %struct.zend_atomic_bool_s, %struct.zend_atomic_bool_s, ptr, i64, ptr, ptr, %struct._zend_array, %struct._zend_array, i32, i8, %struct._zval_struct, %struct._zval_struct, %struct._zend_stack, %struct._zend_stack, %struct._zend_stack, ptr, i32, i32, i64, ptr, ptr, ptr, %struct._zend_objects_store, ptr, ptr, ptr, [3 x %struct._zend_op], ptr, i8, i8, i64, i32, i32, ptr, [16 x %struct._HashTableIterator], ptr, %union._zend_function, %struct._zend_op, %struct._zend_array, i64, %struct.zend_get_gc_buffer, ptr, ptr, ptr, i64, i8, i32, ptr, ptr, i64, %struct._zend_call_stack, i64, i64, [6 x ptr] }
%struct.zend_atomic_bool_s = type { i8 }
%struct._zval_struct = type { %union._zend_value, %union.anon.0, %union.anon.3 }
%union._zend_value = type { i64 }
%union.anon.0 = type { i32 }
%union.anon.3 = type { i32 }
%struct._zend_stack = type { i32, i32, i32, ptr }
%struct._zend_objects_store = type { ptr, i32, i32, i32 }
%struct._HashTableIterator = type { ptr, i32, i32 }
%union._zend_function = type { %struct._zend_op_array }
%struct._zend_op_array = type { i8, [3 x i8], i32, ptr, ptr, ptr, i32, i32, ptr, ptr, ptr, ptr, i32, i32, i32, i32, ptr, ptr, ptr, ptr, ptr, i32, i32, ptr, ptr, ptr, i32, i32, i32, i32, ptr, ptr, [6 x ptr] }
%struct._zend_op = type { ptr, %union._znode_op, %union._znode_op, %union._znode_op, i32, i32, i8, i8, i8, i8 }
%union._znode_op = type { i32 }
%struct._zend_array = type { %struct._zend_refcounted_h, %union.anon.5, i32, %union.anon.7, i32, i32, i32, i32, i64, ptr }
%struct._zend_refcounted_h = type { i32, %union.anon }
%union.anon = type { i32 }
%union.anon.5 = type { i32 }
%union.anon.7 = type { ptr }
%struct.zend_get_gc_buffer = type { ptr, ptr, ptr }
%struct._zend_call_stack = type { ptr, i64 }
%struct._zend_class_entry = type { i8, ptr, %union.anon.10, i32, i32, i32, i32, ptr, ptr, ptr, %struct._zend_array, %struct._zend_array, %struct._zend_array, ptr, ptr, ptr, ptr, ptr, ptr, ptr, ptr, ptr, ptr, ptr, ptr, ptr, ptr, ptr, ptr, ptr, ptr, ptr, %union.anon.11, ptr, ptr, ptr, ptr, i32, i32, %union.anon.12, ptr, ptr, ptr, ptr, i32, ptr, ptr, %union.anon.13 }
%union.anon.10 = type { ptr }
%union.anon.11 = type { ptr }
%union.anon.12 = type { ptr }
%union.anon.13 = type { %struct.anon.14 }
%struct.anon.14 = type { ptr, i32, i32 }
%struct._zend_string = type { %struct._zend_refcounted_h, i64, i64, [1 x i8] }
%struct._php_date_obj = type { ptr, %struct._zend_object }
%struct._zend_object = type { %struct._zend_refcounted_h, i32, ptr, ptr, ptr, [1 x %struct._zval_struct] }
%struct._timelib_time = type { i64, i64, i64, i64, i64, i64, i64, i32, ptr, ptr, i32, %struct._timelib_rel_time, i64, i32, i32, i32, i32, i32, i32, i32, i32, i32 }
%struct._timelib_rel_time = type { i64, i64, i64, i64, i64, i64, i64, i32, i32, i32, i32, i64, %struct.anon.4, i32, i32 }
%struct.anon.4 = type { i32, i64 }

@executor_globals = external global %struct._zend_executor_globals, align 8
@date_ce_date_object_error = hidden global ptr null, align 8
@.str.383 = private unnamed_addr constant [105 x i8] c"Object of type %s has not been correctly initialized by calling parent::__construct() in its constructor\00", align 1
@.str.384 = private unnamed_addr constant [101 x i8] c"Object of type %s not been correctly initialized by calling parent::__construct() in its constructor\00", align 1
@.str.385 = private unnamed_addr constant [121 x i8] c"Object of type %s (inheriting %s) has not been correctly initialized by calling parent::__construct() in its constructor\00", align 1

; Function Attrs: nounwind uwtable
define internal void @date_throw_uninitialized_error(ptr noundef %0) #0 {
  %2 = alloca ptr, align 8
  %3 = alloca ptr, align 8
  store ptr %0, ptr %2, align 8
  %4 = load ptr, ptr %2, align 8
  %5 = getelementptr inbounds %struct._zend_class_entry, ptr %4, i32 0, i32 0
  %6 = load i8, ptr %5, align 8
  %7 = sext i8 %6 to i32
  %8 = icmp eq i32 %7, 1
  br i1 %8, label %9, label %16

9:                                                ; preds = %1
  %10 = load ptr, ptr @date_ce_date_object_error, align 8
  %11 = load ptr, ptr %2, align 8
  %12 = getelementptr inbounds %struct._zend_class_entry, ptr %11, i32 0, i32 1
  %13 = load ptr, ptr %12, align 8
  %14 = getelementptr inbounds %struct._zend_string, ptr %13, i32 0, i32 3
  %15 = getelementptr inbounds [1 x i8], ptr %14, i64 0, i64 0
  call void (ptr, ptr, ...) @zend_throw_error(ptr noundef %10, ptr noundef @.str.383, ptr noundef %15)
  br label %63

16:                                               ; preds = %1
  %17 = load ptr, ptr %2, align 8
  store ptr %17, ptr %3, align 8
  br label %18

18:                                               ; preds = %34, %16
  %19 = load ptr, ptr %3, align 8
  %20 = icmp ne ptr %19, null
  br i1 %20, label %21, label %32

21:                                               ; preds = %18
  %22 = load ptr, ptr %3, align 8
  %23 = getelementptr inbounds %struct._zend_class_entry, ptr %22, i32 0, i32 2
  %24 = load ptr, ptr %23, align 8
  %25 = icmp ne ptr %24, null
  br i1 %25, label %26, label %32

26:                                               ; preds = %21
  %27 = load ptr, ptr %3, align 8
  %28 = getelementptr inbounds %struct._zend_class_entry, ptr %27, i32 0, i32 0
  %29 = load i8, ptr %28, align 8
  %30 = sext i8 %29 to i32
  %31 = icmp eq i32 %30, 2
  br label %32

32:                                               ; preds = %26, %21, %18
  %33 = phi i1 [ false, %21 ], [ false, %18 ], [ %31, %26 ]
  br i1 %33, label %34, label %38

34:                                               ; preds = %32
  %35 = load ptr, ptr %3, align 8
  %36 = getelementptr inbounds %struct._zend_class_entry, ptr %35, i32 0, i32 2
  %37 = load ptr, ptr %36, align 8
  store ptr %37, ptr %3, align 8
  br label %18

38:                                               ; preds = %32
  %39 = load ptr, ptr %3, align 8
  %40 = getelementptr inbounds %struct._zend_class_entry, ptr %39, i32 0, i32 0
  %41 = load i8, ptr %40, align 8
  %42 = sext i8 %41 to i32
  %43 = icmp ne i32 %42, 1
  br i1 %43, label %44, label %51

44:                                               ; preds = %38
  %45 = load ptr, ptr @date_ce_date_object_error, align 8
  %46 = load ptr, ptr %2, align 8
  %47 = getelementptr inbounds %struct._zend_class_entry, ptr %46, i32 0, i32 1
  %48 = load ptr, ptr %47, align 8
  %49 = getelementptr inbounds %struct._zend_string, ptr %48, i32 0, i32 3
  %50 = getelementptr inbounds [1 x i8], ptr %49, i64 0, i64 0
  call void (ptr, ptr, ...) @zend_throw_error(ptr noundef %45, ptr noundef @.str.384, ptr noundef %50)
  br label %51

51:                                               ; preds = %44, %38
  %52 = load ptr, ptr @date_ce_date_object_error, align 8
  %53 = load ptr, ptr %2, align 8
  %54 = getelementptr inbounds %struct._zend_class_entry, ptr %53, i32 0, i32 1
  %55 = load ptr, ptr %54, align 8
  %56 = getelementptr inbounds %struct._zend_string, ptr %55, i32 0, i32 3
  %57 = getelementptr inbounds [1 x i8], ptr %56, i64 0, i64 0
  %58 = load ptr, ptr %3, align 8
  %59 = getelementptr inbounds %struct._zend_class_entry, ptr %58, i32 0, i32 1
  %60 = load ptr, ptr %59, align 8
  %61 = getelementptr inbounds %struct._zend_string, ptr %60, i32 0, i32 3
  %62 = getelementptr inbounds [1 x i8], ptr %61, i64 0, i64 0
  call void (ptr, ptr, ...) @zend_throw_error(ptr noundef %52, ptr noundef @.str.385, ptr noundef %57, ptr noundef %62)
  br label %63

63:                                               ; preds = %51, %9
  ret void
}

; Function Attrs: nounwind uwtable
define internal ptr @php_date_obj_from_obj(ptr noundef %0) #0 {
  %2 = alloca ptr, align 8
  store ptr %0, ptr %2, align 8
  %3 = load ptr, ptr %2, align 8
  %4 = getelementptr inbounds i8, ptr %3, i64 -8
  ret ptr %4
}

; Function Attrs: nounwind uwtable
define internal void @php_date_isodate_set(ptr noundef %0, i64 noundef %1, i64 noundef %2, i64 noundef %3, ptr noundef %4) #0 {
  %6 = alloca ptr, align 8
  %7 = alloca i64, align 8
  %8 = alloca i64, align 8
  %9 = alloca i64, align 8
  %10 = alloca ptr, align 8
  %11 = alloca ptr, align 8
  store ptr %0, ptr %6, align 8
  store i64 %1, ptr %7, align 8
  store i64 %2, ptr %8, align 8
  store i64 %3, ptr %9, align 8
  store ptr %4, ptr %10, align 8
  %12 = load ptr, ptr %6, align 8
  %13 = getelementptr inbounds %struct._zval_struct, ptr %12, i32 0, i32 0
  %14 = load ptr, ptr %13, align 8
  %15 = call ptr @php_date_obj_from_obj(ptr noundef %14)
  store ptr %15, ptr %11, align 8
  %16 = load ptr, ptr %11, align 8
  %17 = getelementptr inbounds %struct._php_date_obj, ptr %16, i32 0, i32 0
  %18 = load ptr, ptr %17, align 8
  %19 = icmp ne ptr %18, null
  br i1 %19, label %30, label %20

20:                                               ; preds = %5
  %21 = load ptr, ptr %6, align 8
  %22 = getelementptr inbounds %struct._zval_struct, ptr %21, i32 0, i32 0
  %23 = load ptr, ptr %22, align 8
  %24 = getelementptr inbounds %struct._zend_object, ptr %23, i32 0, i32 2
  %25 = load ptr, ptr %24, align 8
  call void @date_throw_uninitialized_error(ptr noundef %25)
  br label %26

26:                                               ; preds = %20
  %27 = load ptr, ptr getelementptr inbounds (%struct._zend_executor_globals, ptr @executor_globals, i32 0, i32 50), align 8
  %28 = icmp ne ptr %27, null
  call void @llvm.assume(i1 %28)
  br label %64

29:                                               ; No predecessors!
  br label %30

30:                                               ; preds = %29, %5
  %31 = load i64, ptr %7, align 8
  %32 = load ptr, ptr %11, align 8
  %33 = getelementptr inbounds %struct._php_date_obj, ptr %32, i32 0, i32 0
  %34 = load ptr, ptr %33, align 8
  %35 = getelementptr inbounds %struct._timelib_time, ptr %34, i32 0, i32 0
  store i64 %31, ptr %35, align 8
  %36 = load ptr, ptr %11, align 8
  %37 = getelementptr inbounds %struct._php_date_obj, ptr %36, i32 0, i32 0
  %38 = load ptr, ptr %37, align 8
  %39 = getelementptr inbounds %struct._timelib_time, ptr %38, i32 0, i32 1
  store i64 1, ptr %39, align 8
  %40 = load ptr, ptr %11, align 8
  %41 = getelementptr inbounds %struct._php_date_obj, ptr %40, i32 0, i32 0
  %42 = load ptr, ptr %41, align 8
  %43 = getelementptr inbounds %struct._timelib_time, ptr %42, i32 0, i32 2
  store i64 1, ptr %43, align 8
  %44 = load ptr, ptr %11, align 8
  %45 = getelementptr inbounds %struct._php_date_obj, ptr %44, i32 0, i32 0
  %46 = load ptr, ptr %45, align 8
  %47 = getelementptr inbounds %struct._timelib_time, ptr %46, i32 0, i32 11
  call void @llvm.memset.p0.i64(ptr align 8 %47, i8 0, i64 104, i1 false)
  %48 = load i64, ptr %7, align 8
  %49 = load i64, ptr %8, align 8
  %50 = load i64, ptr %9, align 8
  %51 = call i64 @timelib_daynr_from_weeknr(i64 noundef %48, i64 noundef %49, i64 noundef %50)
  %52 = load ptr, ptr %11, align 8
  %53 = getelementptr inbounds %struct._php_date_obj, ptr %52, i32 0, i32 0
  %54 = load ptr, ptr %53, align 8
  %55 = getelementptr inbounds %struct._timelib_time, ptr %54, i32 0, i32 11
  %56 = getelementptr inbounds %struct._timelib_rel_time, ptr %55, i32 0, i32 2
  store i64 %51, ptr %56, align 8
  %57 = load ptr, ptr %11, align 8
  %58 = getelementptr inbounds %struct._php_date_obj, ptr %57, i32 0, i32 0
  %59 = load ptr, ptr %58, align 8
  %60 = getelementptr inbounds %struct._timelib_time, ptr %59, i32 0, i32 16
  store i32 1, ptr %60, align 4
  %61 = load ptr, ptr %11, align 8
  %62 = getelementptr inbounds %struct._php_date_obj, ptr %61, i32 0, i32 0
  %63 = load ptr, ptr %62, align 8
  call void @timelib_update_ts(ptr noundef %63, ptr noundef null)
  br label %64

64:                                               ; preds = %30, %26
  ret void
}