; Function Attrs: nounwind uwtable
define internal fastcc void @php_date_isodate_set(ptr nocapture readonly %.0.val, i64 noundef %0, i64 noundef %1, i64 noundef %2) unnamed_addr #0 {
  %4 = getelementptr inbounds i8, ptr %.0.val, i64 -8
  %5 = load ptr, ptr %4, align 8
  %.not = icmp eq ptr %5, null
  br i1 %.not, label %6, label %34

6:                                                ; preds = %3
  %7 = getelementptr inbounds i8, ptr %.0.val, i64 16
  %8 = load ptr, ptr %7, align 8
  %9 = load i8, ptr %8, align 8
  %10 = icmp eq i8 %9, 1
  br i1 %10, label %11, label %.preheader.i

11:                                               ; preds = %6
  %12 = load ptr, ptr @date_ce_date_object_error, align 8
  %13 = getelementptr inbounds i8, ptr %8, i64 8
  %14 = load ptr, ptr %13, align 8
  %15 = getelementptr inbounds i8, ptr %14, i64 24
  tail call void (ptr, ptr, ...) @zend_throw_error(ptr noundef %12, ptr noundef nonnull @.str.383, ptr noundef nonnull %15) #25
  br label %date_throw_uninitialized_error.exit

.preheader.i:                                     ; preds = %6, %.preheader.i
  %.0.i = phi ptr [ %17, %.preheader.i ], [ %8, %6 ]
  %16 = getelementptr inbounds i8, ptr %.0.i, i64 16
  %17 = load ptr, ptr %16, align 8
  %.not.i = icmp ne ptr %17, null
  %.pr.i = load i8, ptr %.0.i, align 8
  %18 = icmp eq i8 %.pr.i, 2
  %or.cond = select i1 %.not.i, i1 %18, i1 false
  br i1 %or.cond, label %.preheader.i, label %.critedge.i

.critedge.i:                                      ; preds = %.preheader.i
  %.not12.i = icmp eq i8 %.pr.i, 1
  br i1 %.not12.i, label %24, label %19

19:                                               ; preds = %.critedge.i
  %20 = load ptr, ptr @date_ce_date_object_error, align 8
  %21 = getelementptr inbounds i8, ptr %8, i64 8
  %22 = load ptr, ptr %21, align 8
  %23 = getelementptr inbounds i8, ptr %22, i64 24
  tail call void (ptr, ptr, ...) @zend_throw_error(ptr noundef %20, ptr noundef nonnull @.str.384, ptr noundef nonnull %23) #25
  br label %24

24:                                               ; preds = %19, %.critedge.i
  %25 = load ptr, ptr @date_ce_date_object_error, align 8
  %26 = getelementptr inbounds i8, ptr %8, i64 8
  %27 = load ptr, ptr %26, align 8
  %28 = getelementptr inbounds i8, ptr %27, i64 24
  %29 = getelementptr inbounds i8, ptr %.0.i, i64 8
  %30 = load ptr, ptr %29, align 8
  %31 = getelementptr inbounds i8, ptr %30, i64 24
  tail call void (ptr, ptr, ...) @zend_throw_error(ptr noundef %25, ptr noundef nonnull @.str.385, ptr noundef nonnull %28, ptr noundef nonnull %31) #25
  br label %date_throw_uninitialized_error.exit

date_throw_uninitialized_error.exit:              ; preds = %11, %24
  %32 = load ptr, ptr getelementptr inbounds (%struct._zend_executor_globals, ptr @executor_globals, i64 0, i32 50), align 8
  %33 = icmp ne ptr %32, null
  tail call void @llvm.assume(i1 %33)
  br label %47

34:                                               ; preds = %3
  store i64 %0, ptr %5, align 8
  %35 = load ptr, ptr %4, align 8
  %36 = getelementptr inbounds i8, ptr %35, i64 8
  store i64 1, ptr %36, align 8
  %37 = load ptr, ptr %4, align 8
  %38 = getelementptr inbounds i8, ptr %37, i64 16
  store i64 1, ptr %38, align 8
  %39 = load ptr, ptr %4, align 8
  %40 = getelementptr inbounds i8, ptr %39, i64 88
  tail call void @llvm.memset.p0.i64(ptr noundef nonnull align 8 dereferenceable(104) %40, i8 0, i64 104, i1 false)
  %41 = tail call i64 @timelib_daynr_from_weeknr(i64 noundef %0, i64 noundef %1, i64 noundef %2) #25
  %42 = load ptr, ptr %4, align 8
  %43 = getelementptr inbounds i8, ptr %42, i64 104
  store i64 %41, ptr %43, align 8
  %44 = load ptr, ptr %4, align 8
  %45 = getelementptr inbounds i8, ptr %44, i64 212
  store i32 1, ptr %45, align 4
  %46 = load ptr, ptr %4, align 8
  tail call void @timelib_update_ts(ptr noundef %46, ptr noundef null) #25
  br label %47

47:                                               ; preds = %34, %date_throw_uninitialized_error.exit
  ret void
}